; Function Attrs: mustprogress nounwind uwtable
define hidden void @_ZNK23rep_stos_large_evexNode4emitEP17C2_MacroAssemblerP13PhaseRegAlloc(ptr noundef nonnull align 8 dereferenceable(104) %0, ptr noundef %1, ptr noundef %2) unnamed_addr #3 align 2 {
  %4 = getelementptr inbounds i8, ptr %0, i64 72
  %5 = load ptr, ptr %4, align 8
  %6 = load ptr, ptr %5, align 8
  %7 = getelementptr inbounds i8, ptr %6, i64 8
  %8 = load ptr, ptr %7, align 8
  %9 = tail call noundef i32 %8(ptr noundef nonnull align 8 dereferenceable(8) %5) #23
  %10 = add i32 %9, 2
  %11 = getelementptr inbounds i8, ptr %0, i64 80
  %12 = load ptr, ptr %11, align 8
  %13 = load ptr, ptr %12, align 8
  %14 = getelementptr inbounds i8, ptr %13, i64 8
  %15 = load ptr, ptr %14, align 8
  %16 = tail call noundef i32 %15(ptr noundef nonnull align 8 dereferenceable(8) %12) #23
  %17 = add i32 %16, %10
  %18 = getelementptr inbounds i8, ptr %0, i64 88
  %19 = load ptr, ptr %18, align 8
  %20 = load ptr, ptr %19, align 8
  %21 = getelementptr inbounds i8, ptr %20, i64 8
  %22 = load ptr, ptr %21, align 8
  %23 = tail call noundef i32 %22(ptr noundef nonnull align 8 dereferenceable(8) %19) #23
  %24 = add i32 %23, %17
  %25 = load ptr, ptr %11, align 8
  %26 = load ptr, ptr %25, align 8
  %27 = getelementptr inbounds i8, ptr %26, i64 40
  %28 = load ptr, ptr %27, align 8
  %29 = tail call noundef i32 %28(ptr noundef nonnull align 8 dereferenceable(8) %25, ptr noundef %2, ptr noundef nonnull %0, i32 noundef %10) #23
  %or.cond.i.i = icmp ult i32 %29, 32
  %spec.select.i.i = select i1 %or.cond.i.i, i32 %29, i32 -1
  %30 = load ptr, ptr %4, align 8
  %31 = load ptr, ptr %30, align 8
  %32 = getelementptr inbounds i8, ptr %31, i64 40
  %33 = load ptr, ptr %32, align 8
  %34 = tail call noundef i32 %33(ptr noundef nonnull align 8 dereferenceable(8) %30, ptr noundef %2, ptr noundef nonnull %0, i32 noundef 2) #23
  %or.cond.i.i16 = icmp ult i32 %34, 32
  %spec.select.i.i17 = select i1 %or.cond.i.i16, i32 %34, i32 -1
  %35 = load ptr, ptr %18, align 8
  %36 = load ptr, ptr %35, align 8
  %37 = getelementptr inbounds i8, ptr %36, i64 40
  %38 = load ptr, ptr %37, align 8
  %39 = tail call noundef i32 %38(ptr noundef nonnull align 8 dereferenceable(8) %35, ptr noundef %2, ptr noundef nonnull %0, i32 noundef %17) #23
  %or.cond.i.i18 = icmp ult i32 %39, 32
  %spec.select.i.i19 = select i1 %or.cond.i.i18, i32 %39, i32 -1
  %40 = getelementptr inbounds i8, ptr %0, i64 96
  %41 = load ptr, ptr %40, align 8
  %42 = load ptr, ptr %41, align 8
  %43 = getelementptr inbounds i8, ptr %42, i64 40
  %44 = load ptr, ptr %43, align 8
  %45 = tail call noundef i32 %44(ptr noundef nonnull align 8 dereferenceable(8) %41, ptr noundef %2, ptr noundef nonnull %0, i32 noundef %24) #23
  %or.cond.i.i20 = icmp ult i32 %45, 8
  %spec.select.i.i21 = select i1 %or.cond.i.i20, i32 %45, i32 -1
  tail call void @_ZN14MacroAssembler9clear_memE8RegisterS0_S0_11XMMRegisterb9KRegister(ptr noundef nonnull align 8 dereferenceable(40) %1, i32 %spec.select.i.i, i32 %spec.select.i.i17, i32 0, i32 %spec.select.i.i19, i1 noundef zeroext true, i32 %spec.select.i.i21) #23
  ret void
}